target datalayout = "e-m:e-p270:32:32-p271:32:32-p272:64:64-i64:64-i128:128-f80:128-n8:16:32:64-S128"
target triple = "x86_64-pc-linux-gnu"

%struct._zend_array = type { %struct._zend_refcounted_h, %union.anon.0, i32, %union.anon.1, i32, i32, i32, i32, i64, ptr }
%struct._zend_refcounted_h = type { i32, %union.anon }
%union.anon = type { i32 }
%union.anon.0 = type { i32 }
%union.anon.1 = type { ptr }
%struct._zend_executor_globals = type { %struct._zval_struct, %struct._zval_struct, [32 x ptr], ptr, ptr, %struct._zend_array, %struct._zend_array, ptr, i32, i32, ptr, ptr, ptr, ptr, ptr, ptr, i64, ptr, ptr, i32, i32, i64, i32, i32, i32, i8, i8, %struct.zend_atomic_bool_s, %struct.zend_atomic_bool_s, ptr, i64, ptr, ptr, %struct._zend_array, %struct._zend_array, i32, i8, %struct._zval_struct, %struct._zval_struct, %struct._zend_stack, %struct._zend_stack, %struct._zend_stack, ptr, i32, i32, i64, ptr, ptr, ptr, %struct._zend_objects_store, ptr, ptr, ptr, [3 x %struct._zend_op], ptr, i8, i8, i64, i32, i32, ptr, [16 x %struct._HashTableIterator], ptr, %union._zend_function, %struct._zend_op, %struct._zend_array, i64, %struct.zend_get_gc_buffer, ptr, ptr, ptr, i64, i8, i32, ptr, ptr, i64, %struct._zend_call_stack, i64, i64, [6 x ptr] }
%struct.zend_atomic_bool_s = type { i8 }
%struct._zval_struct = type { %union._zend_value, %union.anon.3, %union.anon.6 }
%union._zend_value = type { i64 }
%union.anon.3 = type { i32 }
%union.anon.6 = type { i32 }
%struct._zend_stack = type { i32, i32, i32, ptr }
%struct._zend_objects_store = type { ptr, i32, i32, i32 }
%struct._HashTableIterator = type { ptr, i32, i32 }
%union._zend_function = type { %struct._zend_op_array }
%struct._zend_op_array = type { i8, [3 x i8], i32, ptr, ptr, ptr, i32, i32, ptr, ptr, ptr, ptr, i32, i32, i32, i32, ptr, ptr, ptr, ptr, ptr, i32, i32, ptr, ptr, ptr, i32, i32, i32, i32, ptr, ptr, [6 x ptr] }
%struct._zend_op = type { ptr, %union._znode_op, %union._znode_op, %union._znode_op, i32, i32, i8, i8, i8, i8 }
%union._znode_op = type { i32 }
%struct.zend_get_gc_buffer = type { ptr, ptr, ptr }
%struct._zend_call_stack = type { ptr, i64 }
%struct._zend_resource = type { %struct._zend_refcounted_h, i64, i32, ptr }
%struct._php_stream = type { ptr, ptr, %struct._php_stream_filter_chain, %struct._php_stream_filter_chain, ptr, ptr, %struct._zval_struct, i16, [16 x i8], i32, ptr, ptr, ptr, ptr, i64, ptr, i64, i64, i64, i64, ptr }
%struct._php_stream_filter_chain = type { ptr, ptr, ptr }

@le_pstream = internal global i32 -1, align 4
@executor_globals = external global %struct._zend_executor_globals, align 8

; Function Attrs: nounwind uwtable
define internal i32 @forget_persistent_resource_id_numbers(ptr noundef %0) #0 {
  %2 = alloca i32, align 4
  %3 = alloca ptr, align 8
  %4 = alloca ptr, align 8
  %5 = alloca ptr, align 8
  store ptr %0, ptr %3, align 8
  %6 = load ptr, ptr %3, align 8
  %7 = getelementptr inbounds %struct._zval_struct, ptr %6, i32 0, i32 0
  %8 = load ptr, ptr %7, align 8
  store ptr %8, ptr %5, align 8
  %9 = load ptr, ptr %5, align 8
  %10 = getelementptr inbounds %struct._zend_resource, ptr %9, i32 0, i32 2
  %11 = load i32, ptr %10, align 8
  %12 = load i32, ptr @le_pstream, align 4
  %13 = icmp ne i32 %11, %12
  br i1 %13, label %14, label %15

14:                                               ; preds = %1
  store i32 0, ptr %2, align 4
  br label %33

15:                                               ; preds = %1
  %16 = load ptr, ptr %5, align 8
  %17 = getelementptr inbounds %struct._zend_resource, ptr %16, i32 0, i32 3
  %18 = load ptr, ptr %17, align 8
  store ptr %18, ptr %4, align 8
  %19 = load ptr, ptr %4, align 8
  %20 = getelementptr inbounds %struct._php_stream, ptr %19, i32 0, i32 10
  store ptr null, ptr %20, align 8
  %21 = load ptr, ptr %4, align 8
  %22 = getelementptr inbounds %struct._php_stream, ptr %21, i32 0, i32 13
  %23 = load ptr, ptr %22, align 8
  %24 = icmp ne ptr %23, null
  br i1 %24, label %25, label %32

25:                                               ; preds = %15
  %26 = load ptr, ptr %4, align 8
  %27 = getelementptr inbounds %struct._php_stream, ptr %26, i32 0, i32 13
  %28 = load ptr, ptr %27, align 8
  %29 = call i32 @zend_list_delete(ptr noundef %28)
  %30 = load ptr, ptr %4, align 8
  %31 = getelementptr inbounds %struct._php_stream, ptr %30, i32 0, i32 13
  store ptr null, ptr %31, align 8
  br label %32

32:                                               ; preds = %25, %15
  store i32 0, ptr %2, align 4
  br label %33

33:                                               ; preds = %32, %14
  %34 = load i32, ptr %2, align 4
  ret i32 %34
}

; Function Attrs: nounwind uwtable
define hidden i32 @zm_deactivate_streams(i32 noundef %0, i32 noundef %1) #0 {
  %3 = alloca ptr, align 8
  %4 = alloca i32, align 4
  %5 = alloca i32, align 4
  %6 = alloca ptr, align 8
  %7 = alloca ptr, align 8
  %8 = alloca i32, align 4
  %9 = alloca i64, align 8
  %10 = alloca ptr, align 8
  store i32 %0, ptr %4, align 4
  store i32 %1, ptr %5, align 4
  br label %11

11:                                               ; preds = %2
  store ptr getelementptr inbounds (%struct._zend_executor_globals, ptr @executor_globals, i32 0, i32 34), ptr %7, align 8
  %12 = load ptr, ptr %7, align 8
  %13 = getelementptr inbounds %struct._zend_array, ptr %12, i32 0, i32 4
  %14 = load i32, ptr %13, align 8
  store i32 %14, ptr %8, align 4
  %15 = load ptr, ptr %7, align 8
  %16 = getelementptr inbounds %struct._zend_array, ptr %15, i32 0, i32 1
  %17 = load i32, ptr %16, align 8
  %18 = xor i32 %17, -1
  %19 = and i32 %18, 4
  %20 = zext i32 %19 to i64
  %21 = mul i64 %20, 4
  %22 = add i64 16, %21
  store i64 %22, ptr %9, align 8
  %23 = load ptr, ptr %7, align 8
  %24 = getelementptr inbounds %struct._zend_array, ptr %23, i32 0, i32 3
  %25 = load ptr, ptr %24, align 8
  store ptr %25, ptr %10, align 8
  br label %26

26:                                               ; preds = %46, %11
  %27 = load i32, ptr %8, align 4
  %28 = icmp ugt i32 %27, 0
  br i1 %28, label %29, label %52

29:                                               ; preds = %26
  %30 = load ptr, ptr %10, align 8
  store ptr %30, ptr %3, align 8
  %31 = load ptr, ptr %3, align 8
  %32 = getelementptr inbounds %struct._zval_struct, ptr %31, i32 0, i32 1
  %33 = load i8, ptr %32, align 8
  %34 = zext i8 %33 to i32
  %35 = icmp eq i32 %34, 0
  %36 = xor i1 %35, true
  %37 = xor i1 %36, true
  %38 = zext i1 %37 to i32
  %39 = sext i32 %38 to i64
  %40 = icmp ne i64 %39, 0
  br i1 %40, label %41, label %42

41:                                               ; preds = %29
  br label %46

42:                                               ; preds = %29
  %43 = load ptr, ptr %10, align 8
  store ptr %43, ptr %6, align 8
  %44 = load ptr, ptr %6, align 8
  %45 = call i32 @forget_persistent_resource_id_numbers(ptr noundef %44)
  br label %46

46:                                               ; preds = %42, %41
  %47 = load ptr, ptr %10, align 8
  %48 = load i64, ptr %9, align 8
  %49 = getelementptr inbounds i8, ptr %47, i64 %48
  store ptr %49, ptr %10, align 8
  %50 = load i32, ptr %8, align 4
  %51 = add i32 %50, -1
  store i32 %51, ptr %8, align 4
  br label %26

52:                                               ; preds = %26
  br label %53

53:                                               ; preds = %52
  ret i32 0
}